; Function Attrs: mustprogress uwtable
define void @_ZN4base36PersistentSparseHistogramDataManagerC2EPNS_25PersistentMemoryAllocatorE(ptr noundef nonnull align 8 dereferenceable(112) initializes((0, 8)) %0, ptr noundef %1) unnamed_addr #0 align 2 personality ptr @__gxx_personality_v0 {
  store ptr %1, ptr %0, align 8, !tbaa !3
  %3 = getelementptr inbounds nuw i8, ptr %0, i64 8
  tail call void @_ZN4base25PersistentMemoryAllocator8IteratorC1EPKS0_(ptr noundef nonnull align 8 dereferenceable(16) %3, ptr noundef %1)
  %4 = getelementptr inbounds nuw i8, ptr %0, i64 32
  store i32 0, ptr %4, align 8, !tbaa !25
  %5 = getelementptr inbounds nuw i8, ptr %0, i64 40
  store ptr null, ptr %5, align 8, !tbaa !26
  %6 = getelementptr inbounds nuw i8, ptr %0, i64 48
  store ptr %4, ptr %6, align 8, !tbaa !27
  %7 = getelementptr inbounds nuw i8, ptr %0, i64 56
  store ptr %4, ptr %7, align 8, !tbaa !28
  %8 = getelementptr inbounds nuw i8, ptr %0, i64 64
  store i64 0, ptr %8, align 8, !tbaa !29
  %9 = getelementptr inbounds nuw i8, ptr %0, i64 72
  invoke void @_ZN4base8internal8LockImplC1Ev(ptr noundef nonnull align 8 dereferenceable(40) %9)
          to label %_ZN4base4LockC2Ev.exit unwind label %10

_ZN4base4LockC2Ev.exit:                           ; preds = %2
  ret void

10:                                               ; preds = %2
  %11 = landingpad { ptr, i32 }
          cleanup
  %12 = getelementptr inbounds nuw i8, ptr %0, i64 24
  tail call void @_ZNSt3mapImSt10unique_ptrIN4base26PersistentSampleMapRecordsESt14default_deleteIS2_EESt4lessImESaISt4pairIKmS5_EEED2Ev(ptr noundef nonnull align 8 dereferenceable(48) %12) #21
  resume { ptr, i32 } %11
}